c__builtin__
set
p0
((lp1
V\u57fa\u91d1B-6000_sz150206_sell_5500_0.461_2017-01-04 14:49:00
p2
aV\u57fa\u91d1B-6000_sz150170_sell_2500_0.977_2017-01-04 14:49:00
p3
aV\u57fa\u91d1B-6000_sz150182_sell_2200_1.137_2017-01-04 14:49:00
p4
aV\u57fa\u91d1B-6000_sz150270_sell_7500_1.004_2017-01-05 14:49:00
p5
aV\u57fa\u91d1B-6000_sz150172_sell_6300_1.189_2016-12-27 14:49:00
p6
aV\u57fa\u91d1B-6000_sz150270_buy_7500_1.005_2017-01-04 14:50:00
p7
atp8
Rp9
.